; ModuleID = '1/1644.c'
source_filename = "1/1644.c"
target datalayout = "e-m:e-p270:32:32-p271:32:32-p272:64:64-i64:64-f80:128-n8:16:32:64-S128"
target triple = "x86_64-pc-linux-gnu"

@.str = private unnamed_addr constant [3 x i8] c"%d\00", align 1
@.str.1 = private unnamed_addr constant [4 x i8] c"%d\0A\00", align 1

; Function Attrs: noinline nounwind uwtable
define dso_local void @main() #0 {
  %1 = alloca i32, align 4
  %2 = alloca i32, align 4
  %3 = call i32 (i8*, ...) @__isoc99_scanf(i8* getelementptr inbounds ([3 x i8], [3 x i8]* @.str, i64 0, i64 0), i32* %2)
  br label %4

4:                                                ; preds = %8, %0
  %5 = load i32, i32* %2, align 4
  %6 = add nsw i32 %5, -1
  store i32 %6, i32* %2, align 4
  %7 = icmp ne i32 %5, 0
  br i1 %7, label %8, label %13

8:                                                ; preds = %4
  %9 = call i32 (i8*, ...) @__isoc99_scanf(i8* getelementptr inbounds ([3 x i8], [3 x i8]* @.str, i64 0, i64 0), i32* %1)
  %10 = load i32, i32* %1, align 4
  %11 = call i32 @fi(i32 %10, i32 2)
  %12 = call i32 (i8*, ...) @printf(i8* getelementptr inbounds ([4 x i8], [4 x i8]* @.str.1, i64 0, i64 0), i32 %11)
  br label %4

13:                                               ; preds = %4
  ret void
}

declare dso_local i32 @__isoc99_scanf(i8*, ...) #1

declare dso_local i32 @printf(i8*, ...) #1

; Function Attrs: noinline nounwind uwtable
define dso_local i32 @fi(i32 %0, i32 %1) #0 {
  %3 = alloca i32, align 4
  %4 = alloca i32, align 4
  %5 = alloca i32, align 4
  %6 = alloca i32, align 4
  %7 = alloca i32, align 4
  store i32 %0, i32* %4, align 4
  store i32 %1, i32* %5, align 4
  store i32 1, i32* %7, align 4
  %8 = load i32, i32* %4, align 4
  %9 = icmp eq i32 %8, 1
  br i1 %9, label %10, label %11

10:                                               ; preds = %2
  store i32 0, i32* %3, align 4
  br label %38

11:                                               ; preds = %2
  %12 = load i32, i32* %5, align 4
  store i32 %12, i32* %6, align 4
  br label %13

13:                                               ; preds = %33, %11
  %14 = load i32, i32* %6, align 4
  %15 = load i32, i32* %6, align 4
  %16 = mul nsw i32 %14, %15
  %17 = load i32, i32* %4, align 4
  %18 = icmp sle i32 %16, %17
  br i1 %18, label %19, label %36

19:                                               ; preds = %13
  %20 = load i32, i32* %4, align 4
  %21 = load i32, i32* %6, align 4
  %22 = srem i32 %20, %21
  %23 = icmp eq i32 %22, 0
  br i1 %23, label %24, label %32

24:                                               ; preds = %19
  %25 = load i32, i32* %7, align 4
  %26 = load i32, i32* %4, align 4
  %27 = load i32, i32* %6, align 4
  %28 = sdiv i32 %26, %27
  %29 = load i32, i32* %6, align 4
  %30 = call i32 @fi(i32 %28, i32 %29)
  %31 = add nsw i32 %25, %30
  store i32 %31, i32* %7, align 4
  br label %32

32:                                               ; preds = %24, %19
  br label %33

33:                                               ; preds = %32
  %34 = load i32, i32* %6, align 4
  %35 = add nsw i32 %34, 1
  store i32 %35, i32* %6, align 4
  br label %13

36:                                               ; preds = %13
  %37 = load i32, i32* %7, align 4
  store i32 %37, i32* %3, align 4
  br label %38

38:                                               ; preds = %36, %10
  %39 = load i32, i32* %3, align 4
  ret i32 %39
}


!llvm.module.flags = !{!0}
!llvm.ident = !{!1}

!0 = !{i32 1, !"wchar_size", i32 4}
!1 = !{!"clang version 10.0.0-4ubuntu1 "}
